; ModuleID = '12/55.c'
source_filename = "12/55.c"
target datalayout = "e-m:e-p270:32:32-p271:32:32-p272:64:64-i64:64-f80:128-n8:16:32:64-S128"
target triple = "x86_64-pc-linux-gnu"

@.str = private unnamed_addr constant [3 x i8] c"%d\00", align 1
@.str.1 = private unnamed_addr constant [2 x i8] c"\0A\00", align 1
@.str.2 = private unnamed_addr constant [4 x i8] c"%d\0A\00", align 1

; Function Attrs: noinline nounwind uwtable
define dso_local i32 @main() #0 {
  %1 = alloca i32, align 4
  %2 = alloca i32, align 4
  %3 = alloca i32, align 4
  %4 = alloca i32, align 4
  %5 = alloca i32, align 4
  %6 = alloca i32, align 4
  %7 = alloca [15 x i32], align 16
  store i32 0, i32* %1, align 4
  %8 = call i32 (i8*, ...) @__isoc99_scanf(i8* getelementptr inbounds ([3 x i8], [3 x i8]* @.str, i64 0, i64 0), i32* %2)
  br label %9

9:                                                ; preds = %79, %0
  store i32 0, i32* %3, align 4
  br label %10

10:                                               ; preds = %18, %9
  %11 = load i32, i32* %2, align 4
  %12 = load i32, i32* %3, align 4
  %13 = sext i32 %12 to i64
  %14 = getelementptr inbounds [15 x i32], [15 x i32]* %7, i64 0, i64 %13
  store i32 %11, i32* %14, align 4
  %15 = call i32 (i8*, ...) @__isoc99_scanf(i8* getelementptr inbounds ([3 x i8], [3 x i8]* @.str, i64 0, i64 0), i32* %2)
  %16 = load i32, i32* %3, align 4
  %17 = add nsw i32 %16, 1
  store i32 %17, i32* %3, align 4
  br label %18

18:                                               ; preds = %10
  %19 = load i32, i32* %2, align 4
  %20 = icmp ne i32 %19, 0
  br i1 %20, label %10, label %21

21:                                               ; preds = %18
  %22 = call i32 (i8*, ...) @printf(i8* getelementptr inbounds ([2 x i8], [2 x i8]* @.str.1, i64 0, i64 0))
  store i32 0, i32* %6, align 4
  %23 = load i32, i32* %3, align 4
  %24 = sub nsw i32 %23, 1
  store i32 %24, i32* %4, align 4
  br label %25

25:                                               ; preds = %71, %21
  %26 = load i32, i32* %4, align 4
  %27 = icmp sge i32 %26, 0
  br i1 %27, label %28, label %74

28:                                               ; preds = %25
  store i32 0, i32* %5, align 4
  br label %29

29:                                               ; preds = %67, %28
  %30 = load i32, i32* %5, align 4
  %31 = load i32, i32* %3, align 4
  %32 = icmp slt i32 %30, %31
  br i1 %32, label %33, label %70

33:                                               ; preds = %29
  %34 = load i32, i32* %5, align 4
  %35 = sext i32 %34 to i64
  %36 = getelementptr inbounds [15 x i32], [15 x i32]* %7, i64 0, i64 %35
  %37 = load i32, i32* %36, align 4
  %38 = sitofp i32 %37 to double
  %39 = fdiv double %38, 2.000000e+00
  %40 = load i32, i32* %4, align 4
  %41 = sext i32 %40 to i64
  %42 = getelementptr inbounds [15 x i32], [15 x i32]* %7, i64 0, i64 %41
  %43 = load i32, i32* %42, align 4
  %44 = sitofp i32 %43 to double
  %45 = fcmp oeq double %39, %44
  br i1 %45, label %46, label %49

46:                                               ; preds = %33
  %47 = load i32, i32* %6, align 4
  %48 = add nsw i32 %47, 1
  store i32 %48, i32* %6, align 4
  br label %66

49:                                               ; preds = %33
  %50 = load i32, i32* %4, align 4
  %51 = sext i32 %50 to i64
  %52 = getelementptr inbounds [15 x i32], [15 x i32]* %7, i64 0, i64 %51
  %53 = load i32, i32* %52, align 4
  %54 = sitofp i32 %53 to double
  %55 = fdiv double %54, 2.000000e+00
  %56 = load i32, i32* %5, align 4
  %57 = sext i32 %56 to i64
  %58 = getelementptr inbounds [15 x i32], [15 x i32]* %7, i64 0, i64 %57
  %59 = load i32, i32* %58, align 4
  %60 = sitofp i32 %59 to double
  %61 = fcmp oeq double %55, %60
  br i1 %61, label %62, label %65

62:                                               ; preds = %49
  %63 = load i32, i32* %6, align 4
  %64 = add nsw i32 %63, 1
  store i32 %64, i32* %6, align 4
  br label %65

65:                                               ; preds = %62, %49
  br label %66

66:                                               ; preds = %65, %46
  br label %67

67:                                               ; preds = %66
  %68 = load i32, i32* %5, align 4
  %69 = add nsw i32 %68, 1
  store i32 %69, i32* %5, align 4
  br label %29

70:                                               ; preds = %29
  br label %71

71:                                               ; preds = %70
  %72 = load i32, i32* %4, align 4
  %73 = add nsw i32 %72, -1
  store i32 %73, i32* %4, align 4
  br label %25

74:                                               ; preds = %25
  %75 = load i32, i32* %6, align 4
  %76 = sdiv i32 %75, 2
  %77 = call i32 (i8*, ...) @printf(i8* getelementptr inbounds ([4 x i8], [4 x i8]* @.str.2, i64 0, i64 0), i32 %76)
  %78 = call i32 (i8*, ...) @__isoc99_scanf(i8* getelementptr inbounds ([3 x i8], [3 x i8]* @.str, i64 0, i64 0), i32* %2)
  br label %79

79:                                               ; preds = %74
  %80 = load i32, i32* %2, align 4
  %81 = icmp ne i32 %80, -1
  br i1 %81, label %9, label %82

82:                                               ; preds = %79
  ret i32 0
}

declare dso_local i32 @__isoc99_scanf(i8*, ...) #1

declare dso_local i32 @printf(i8*, ...) #1


!llvm.module.flags = !{!0}
!llvm.ident = !{!1}

!0 = !{i32 1, !"wchar_size", i32 4}
!1 = !{!"clang version 10.0.0-4ubuntu1 "}
